; Function Attrs: mustprogress uwtable
define void @_ZN5Ipopt11DenseVector11CopyFromPosEiRKNS_6VectorE(ptr noundef nonnull align 8 dereferenceable(248) %0, i32 noundef %1, ptr nocapture noundef nonnull readonly align 8 dereferenceable(205) %2) local_unnamed_addr #0 align 2 {
  %4 = getelementptr inbounds i8, ptr %2, i64 233
  %5 = load i8, ptr %4, align 1
  %6 = and i8 %5, 1
  %.not = icmp eq i8 %6, 0
  br i1 %.not, label %13, label %7

7:                                                ; preds = %3
  %8 = getelementptr inbounds i8, ptr %2, i64 240
  %9 = load double, ptr %8, align 8
  %10 = load ptr, ptr %0, align 8
  %11 = getelementptr inbounds i8, ptr %10, i64 72
  %12 = load ptr, ptr %11, align 8
  tail call void %12(ptr noundef nonnull align 8 dereferenceable(205) %0, double noundef %9)
  br label %24

13:                                               ; preds = %3
  %14 = getelementptr inbounds i8, ptr %0, i64 56
  %15 = load ptr, ptr %14, align 8
  %16 = getelementptr inbounds i8, ptr %15, i64 12
  %17 = load i32, ptr %16, align 4
  %18 = getelementptr inbounds i8, ptr %2, i64 216
  %19 = load ptr, ptr %18, align 8
  %20 = sext i32 %1 to i64
  %21 = getelementptr inbounds double, ptr %19, i64 %20
  %22 = tail call noundef ptr @_ZN5Ipopt11DenseVector6ValuesEv(ptr noundef nonnull align 8 dereferenceable(248) %0)
  tail call void @_ZN5Ipopt10IpBlasCopyEiPKdiPdi(i32 noundef %17, ptr noundef %21, i32 noundef 1, ptr noundef %22, i32 noundef 1)
  %23 = getelementptr inbounds i8, ptr %0, i64 232
  store i8 1, ptr %23, align 8
  br label %24

24:                                               ; preds = %13, %7
  tail call void @_ZN5Ipopt12TaggedObject13ObjectChangedEv(ptr noundef nonnull align 8 dereferenceable(56) %0)
  ret void
}